; Function Attrs: mustprogress uwtable
define void @_ZN32pxrInternal_v0_24__pxrReserved__8SdfLayer15CreateAnonymousERKNSt7__cxx1112basic_stringIcSt11char_traitsIcESaIcEEERKNS_9TfWeakPtrIKNS_13SdfFileFormatEEERKSt3mapIS6_S6_St4lessIS6_ESaISt4pairIS7_S6_EEE(ptr dead_on_unwind noalias writable sret(%"class.pxrInternal_v0_24__pxrReserved__::TfRefPtr.149") align 8 %0, ptr noundef nonnull align 8 dereferenceable(32) %1, ptr noundef nonnull align 8 dereferenceable(16) %2, ptr noundef nonnull align 8 dereferenceable(48) %3) local_unnamed_addr #3 align 2 {
  %5 = alloca %"class.pxrInternal_v0_24__pxrReserved__::TfCallContext", align 8
  %6 = getelementptr inbounds nuw i8, ptr %2, i64 8
  %7 = load ptr, ptr %6, align 8
  %.not.i.i.i.i.i.i = icmp eq ptr %7, null
  br i1 %.not.i.i.i.i.i.i, label %_ZNK32pxrInternal_v0_24__pxrReserved__15TfWeakPtrFacadeINS_9TfWeakPtrEKNS_13SdfFileFormatEEntEv.exit.thread, label %_ZNK32pxrInternal_v0_24__pxrReserved__15TfWeakPtrFacadeINS_9TfWeakPtrEKNS_13SdfFileFormatEEntEv.exit

_ZNK32pxrInternal_v0_24__pxrReserved__15TfWeakPtrFacadeINS_9TfWeakPtrEKNS_13SdfFileFormatEEntEv.exit: ; preds = %4
  %8 = getelementptr inbounds nuw i8, ptr %7, i64 14
  %9 = load i8, ptr %8, align 2
  %10 = trunc i8 %9 to i1
  %11 = load ptr, ptr %2, align 8
  %12 = icmp ne ptr %11, null
  %.not1.i.i.not = select i1 %10, i1 %12, i1 false
  br i1 %.not1.i.i.not, label %17, label %_ZNK32pxrInternal_v0_24__pxrReserved__15TfWeakPtrFacadeINS_9TfWeakPtrEKNS_13SdfFileFormatEEntEv.exit.thread

_ZNK32pxrInternal_v0_24__pxrReserved__15TfWeakPtrFacadeINS_9TfWeakPtrEKNS_13SdfFileFormatEEntEv.exit.thread: ; preds = %4, %_ZNK32pxrInternal_v0_24__pxrReserved__15TfWeakPtrFacadeINS_9TfWeakPtrEKNS_13SdfFileFormatEEntEv.exit
  store ptr @.str, ptr %5, align 8
  %13 = getelementptr inbounds nuw i8, ptr %5, i64 8
  store ptr @__func__._ZN32pxrInternal_v0_24__pxrReserved__8SdfLayer15CreateAnonymousERKNSt7__cxx1112basic_stringIcSt11char_traitsIcESaIcEEERKSt3mapIS6_S6_St4lessIS6_ESaISt4pairIS7_S6_EEE, ptr %13, align 8
  %14 = getelementptr inbounds nuw i8, ptr %5, i64 16
  store i64 355, ptr %14, align 8
  %15 = getelementptr inbounds nuw i8, ptr %5, i64 24
  store ptr @__PRETTY_FUNCTION__._ZN32pxrInternal_v0_24__pxrReserved__8SdfLayer15CreateAnonymousERKNSt7__cxx1112basic_stringIcSt11char_traitsIcESaIcEEERKNS_9TfWeakPtrIKNS_13SdfFileFormatEEERKSt3mapIS6_S6_St4lessIS6_ESaISt4pairIS7_S6_EEE, ptr %15, align 8
  %16 = getelementptr inbounds nuw i8, ptr %5, i64 32
  store i8 0, ptr %16, align 8
  call void (ptr, i32, ptr, ...) @_ZN32pxrInternal_v0_24__pxrReserved__18Tf_PostErrorHelperERKNS_13TfCallContextENS_16TfDiagnosticTypeEPKcz(ptr noundef nonnull align 8 dereferenceable(33) %5, i32 noundef 1, ptr noundef nonnull @.str.22)
  store ptr null, ptr %0, align 8
  br label %18

17:                                               ; preds = %_ZNK32pxrInternal_v0_24__pxrReserved__15TfWeakPtrFacadeINS_9TfWeakPtrEKNS_13SdfFileFormatEEntEv.exit
  tail call void @_ZN32pxrInternal_v0_24__pxrReserved__8SdfLayer26_CreateAnonymousWithFormatERKNS_9TfWeakPtrIKNS_13SdfFileFormatEEERKNSt7__cxx1112basic_stringIcSt11char_traitsIcESaIcEEERKSt3mapISC_SC_St4lessISC_ESaISt4pairISD_SC_EEE(ptr dead_on_unwind writable sret(%"class.pxrInternal_v0_24__pxrReserved__::TfRefPtr.149") align 8 %0, ptr noundef nonnull align 8 dereferenceable(16) %2, ptr noundef nonnull align 8 dereferenceable(32) %1, ptr noundef nonnull align 8 dereferenceable(48) %3)
  br label %18

18:                                               ; preds = %17, %_ZNK32pxrInternal_v0_24__pxrReserved__15TfWeakPtrFacadeINS_9TfWeakPtrEKNS_13SdfFileFormatEEntEv.exit.thread
  ret void
}